; Function Attrs: nounwind uwtable
define hidden void @zim_PhpToken_isIgnorable(ptr nocapture noundef readonly %0, ptr nocapture noundef writeonly %1) #0 {
  %3 = getelementptr inbounds i8, ptr %0, i64 44
  %4 = load i32, ptr %3, align 4
  %.not = icmp eq i32 %4, 0
  br i1 %.not, label %6, label %5

5:                                                ; preds = %2
  tail call void @zend_wrong_parameters_none_error() #10
  br label %25

6:                                                ; preds = %2
  %7 = getelementptr inbounds i8, ptr %0, i64 32
  %.val = load ptr, ptr %7, align 8
  %8 = getelementptr inbounds i8, ptr %.val, i64 40
  %9 = getelementptr inbounds i8, ptr %.val, i64 48
  %10 = load i8, ptr %9, align 8
  switch i8 %10, label %17 [
    i8 0, label %14
    i8 10, label %11
  ]

11:                                               ; preds = %6
  %12 = load ptr, ptr %8, align 8
  %13 = getelementptr inbounds i8, ptr %12, i64 8
  br label %17

14:                                               ; preds = %6
  tail call void (ptr, ptr, ...) @zend_throw_error(ptr noundef null, ptr noundef nonnull @.str.15) #10
  %15 = load ptr, ptr getelementptr inbounds (%struct._zend_executor_globals, ptr @executor_globals, i64 0, i32 50), align 8
  %16 = icmp ne ptr %15, null
  tail call void @llvm.assume(i1 %16)
  br label %25

17:                                               ; preds = %11, %6
  %.08.i.ph = phi ptr [ %8, %6 ], [ %13, %11 ]
  %18 = load i64, ptr %.08.i.ph, align 8
  switch i64 %18, label %19 [
    i64 392, label %22
    i64 388, label %22
    i64 387, label %22
  ]

19:                                               ; preds = %17
  %20 = icmp eq i64 %18, 389
  %21 = select i1 %20, i32 3, i32 2
  br label %22

22:                                               ; preds = %17, %17, %17, %19
  %23 = phi i32 [ 3, %17 ], [ %21, %19 ], [ 3, %17 ], [ 3, %17 ]
  %24 = getelementptr inbounds i8, ptr %1, i64 8
  store i32 %23, ptr %24, align 8
  br label %25

25:                                               ; preds = %22, %14, %5
  ret void
}